target datalayout = "e-m:e-p270:32:32-p271:32:32-p272:64:64-i64:64-i128:128-f80:128-n8:16:32:64-S128"
target triple = "x86_64-pc-linux-gnu"

; Function Attrs: nounwind uwtable
define internal i32 @doh_skipqname(ptr noundef %0, i64 noundef %1, ptr noundef %2) #0 {
  %4 = alloca i32, align 4
  %5 = alloca ptr, align 8
  %6 = alloca i64, align 8
  %7 = alloca ptr, align 8
  %8 = alloca i8, align 1
  %9 = alloca i32, align 4
  store ptr %0, ptr %5, align 8, !tbaa !8
  store i64 %1, ptr %6, align 8, !tbaa !85
  store ptr %2, ptr %7, align 8, !tbaa !12
  call void @llvm.lifetime.start.p0(i64 1, ptr %8) #7
  br label %10

10:                                               ; preds = %65, %3
  %11 = load i64, ptr %6, align 8, !tbaa !85
  %12 = load ptr, ptr %7, align 8, !tbaa !12
  %13 = load i32, ptr %12, align 4, !tbaa !10
  %14 = add i32 %13, 1
  %15 = zext i32 %14 to i64
  %16 = icmp ult i64 %11, %15
  br i1 %16, label %17, label %18

17:                                               ; preds = %10
  store i32 2, ptr %4, align 4
  store i32 1, ptr %9, align 4
  br label %69

18:                                               ; preds = %10
  %19 = load ptr, ptr %5, align 8, !tbaa !8
  %20 = load ptr, ptr %7, align 8, !tbaa !12
  %21 = load i32, ptr %20, align 4, !tbaa !10
  %22 = zext i32 %21 to i64
  %23 = getelementptr inbounds nuw i8, ptr %19, i64 %22
  %24 = load i8, ptr %23, align 1, !tbaa !139
  store i8 %24, ptr %8, align 1, !tbaa !139
  %25 = load i8, ptr %8, align 1, !tbaa !139
  %26 = zext i8 %25 to i32
  %27 = and i32 %26, 192
  %28 = icmp eq i32 %27, 192
  br i1 %28, label %29, label %41

29:                                               ; preds = %18
  %30 = load i64, ptr %6, align 8, !tbaa !85
  %31 = load ptr, ptr %7, align 8, !tbaa !12
  %32 = load i32, ptr %31, align 4, !tbaa !10
  %33 = add i32 %32, 2
  %34 = zext i32 %33 to i64
  %35 = icmp ult i64 %30, %34
  br i1 %35, label %36, label %37

36:                                               ; preds = %29
  store i32 2, ptr %4, align 4
  store i32 1, ptr %9, align 4
  br label %69

37:                                               ; preds = %29
  %38 = load ptr, ptr %7, align 8, !tbaa !12
  %39 = load i32, ptr %38, align 4, !tbaa !10
  %40 = add i32 %39, 2
  store i32 %40, ptr %38, align 4, !tbaa !10
  br label %68

41:                                               ; preds = %18
  %42 = load i8, ptr %8, align 1, !tbaa !139
  %43 = zext i8 %42 to i32
  %44 = and i32 %43, 192
  %45 = icmp ne i32 %44, 0
  br i1 %45, label %46, label %47

46:                                               ; preds = %41
  store i32 1, ptr %4, align 4
  store i32 1, ptr %9, align 4
  br label %69

47:                                               ; preds = %41
  %48 = load i64, ptr %6, align 8, !tbaa !85
  %49 = load ptr, ptr %7, align 8, !tbaa !12
  %50 = load i32, ptr %49, align 4, !tbaa !10
  %51 = add i32 %50, 1
  %52 = load i8, ptr %8, align 1, !tbaa !139
  %53 = zext i8 %52 to i32
  %54 = add i32 %51, %53
  %55 = zext i32 %54 to i64
  %56 = icmp ult i64 %48, %55
  br i1 %56, label %57, label %58

57:                                               ; preds = %47
  store i32 2, ptr %4, align 4
  store i32 1, ptr %9, align 4
  br label %69

58:                                               ; preds = %47
  %59 = load i8, ptr %8, align 1, !tbaa !139
  %60 = zext i8 %59 to i32
  %61 = add nsw i32 1, %60
  %62 = load ptr, ptr %7, align 8, !tbaa !12
  %63 = load i32, ptr %62, align 4, !tbaa !10
  %64 = add i32 %63, %61
  store i32 %64, ptr %62, align 4, !tbaa !10
  br label %65

65:                                               ; preds = %58
  %66 = load i8, ptr %8, align 1, !tbaa !139
  %67 = icmp ne i8 %66, 0
  br i1 %67, label %10, label %68, !llvm.loop !182

68:                                               ; preds = %65, %37
  store i32 0, ptr %4, align 4
  store i32 1, ptr %9, align 4
  br label %69

69:                                               ; preds = %68, %57, %46, %36, %17
  call void @llvm.lifetime.end.p0(i64 1, ptr %8) #7
  %70 = load i32, ptr %4, align 4
  ret i32 %70
}